; Function Attrs: mustprogress uwtable
define hidden noundef zeroext i1 @_ZN6Assimp15Q3BSPFileParser8readDataERKNSt7__cxx1112basic_stringIcSt11char_traitsIcESaIcEEE(ptr noundef nonnull align 8 dereferenceable(48) %0, ptr noundef nonnull readonly align 8 captures(none) dereferenceable(32) %1) local_unnamed_addr #0 align 2 personality ptr @__gxx_personality_v0 {
  %3 = getelementptr inbounds nuw i8, ptr %0, i64 40
  %4 = load ptr, ptr %3, align 8
  %5 = load ptr, ptr %1, align 8
  %6 = load ptr, ptr %4, align 8
  %7 = getelementptr inbounds nuw i8, ptr %6, i64 16
  %8 = load ptr, ptr %7, align 8
  %9 = tail call noundef zeroext i1 %8(ptr noundef nonnull align 8 dereferenceable(40) %4, ptr noundef %5)
  br i1 %9, label %10, label %38

10:                                               ; preds = %2
  %11 = load ptr, ptr %3, align 8
  %12 = load ptr, ptr %1, align 8
  %13 = load ptr, ptr %11, align 8
  %14 = getelementptr inbounds nuw i8, ptr %13, i64 32
  %15 = load ptr, ptr %14, align 8
  %16 = tail call noundef ptr %15(ptr noundef nonnull align 8 dereferenceable(40) %11, ptr noundef %12, ptr noundef nonnull @.str)
  %17 = icmp eq ptr %16, null
  br i1 %17, label %38, label %18

18:                                               ; preds = %10
  %19 = load ptr, ptr %16, align 8
  %20 = getelementptr inbounds nuw i8, ptr %19, i64 48
  %21 = load ptr, ptr %20, align 8
  %22 = tail call noundef i64 %21(ptr noundef nonnull align 8 dereferenceable(8) %16)
  %23 = getelementptr inbounds nuw i8, ptr %0, i64 8
  tail call void @_ZNSt6vectorIcSaIcEE6resizeEm(ptr noundef nonnull align 8 dereferenceable(24) %23, i64 noundef %22)
  %24 = load ptr, ptr %23, align 8
  %25 = load ptr, ptr %16, align 8
  %26 = getelementptr inbounds nuw i8, ptr %25, i64 16
  %27 = load ptr, ptr %26, align 8
  %28 = tail call noundef i64 %27(ptr noundef nonnull align 8 dereferenceable(8) %16, ptr noundef nonnull %24, i64 noundef 1, i64 noundef %22)
  %.not = icmp eq i64 %28, %22
  br i1 %.not, label %.sink.split, label %29

29:                                               ; preds = %18
  %30 = load ptr, ptr %23, align 8
  %31 = getelementptr inbounds nuw i8, ptr %0, i64 16
  %32 = load ptr, ptr %31, align 8
  %.not.i.i = icmp eq ptr %32, %30
  br i1 %.not.i.i, label %.sink.split, label %33

33:                                               ; preds = %29
  store ptr %30, ptr %31, align 8
  br label %.sink.split

.sink.split:                                      ; preds = %18, %33, %29
  %34 = load ptr, ptr %3, align 8
  %35 = load ptr, ptr %34, align 8
  %36 = getelementptr inbounds nuw i8, ptr %35, i64 40
  %37 = load ptr, ptr %36, align 8
  tail call void %37(ptr noundef nonnull align 8 dereferenceable(40) %34, ptr noundef nonnull %16)
  br label %38

38:                                               ; preds = %.sink.split, %10, %2
  %.0 = phi i1 [ false, %2 ], [ false, %10 ], [ %.not, %.sink.split ]
  ret i1 %.0
}